; Function Attrs: mustprogress nounwind uwtable
define void @_ZN4pkpy5TupleD2Ev(ptr noundef nonnull readonly align 8 dereferenceable(36) %0) unnamed_addr #3 align 2 personality ptr @__gxx_personality_v0 {
  %2 = load ptr, ptr %0, align 8
  %3 = getelementptr inbounds i8, ptr %0, i64 8
  %4 = icmp eq ptr %2, %3
  br i1 %4, label %6, label %5

5:                                                ; preds = %1
  tail call void @_ZN4pkpy14pool64_deallocEPv(ptr noundef %2) #10
  br label %6

6:                                                ; preds = %5, %1
  ret void
}